; Function Attrs: mustprogress nofree nounwind willreturn memory(read, inaccessiblemem: none) uwtable
define dso_local noundef zeroext i1 @_ZN4llvm8AsmLexer18isAtStartOfCommentEPKc(ptr nocapture noundef nonnull readonly align 8 dereferenceable(180) %0, ptr nocapture noundef readonly %1) local_unnamed_addr #10 align 2 {
  %3 = getelementptr inbounds nuw i8, ptr %0, i64 144
  %4 = load ptr, ptr %3, align 8
  %5 = getelementptr inbounds nuw i8, ptr %4, i64 64
  %6 = load i8, ptr %5, align 8
  %7 = trunc i8 %6 to i1
  br i1 %7, label %8, label %12

8:                                                ; preds = %2
  %9 = getelementptr inbounds nuw i8, ptr %0, i64 177
  %10 = load i8, ptr %9, align 1
  %11 = trunc i8 %10 to i1
  br i1 %11, label %12, label %30

12:                                               ; preds = %8, %2
  %13 = getelementptr inbounds nuw i8, ptr %4, i64 48
  %.sroa.0.0.copyload.i = load ptr, ptr %13, align 8
  %.sroa.2.0..sroa_idx.i = getelementptr inbounds i8, ptr %4, i64 56
  %.sroa.2.0.copyload.i = load i64, ptr %.sroa.2.0..sroa_idx.i, align 8
  %14 = icmp eq i64 %.sroa.2.0.copyload.i, 1
  br i1 %14, label %15, label %19

15:                                               ; preds = %12
  %16 = load i8, ptr %.sroa.0.0.copyload.i, align 1
  %17 = load i8, ptr %1, align 1
  %18 = icmp eq i8 %16, %17
  br label %30

19:                                               ; preds = %12
  %20 = getelementptr inbounds i8, ptr %.sroa.0.0.copyload.i, i64 1
  %21 = load i8, ptr %20, align 1
  %22 = icmp eq i8 %21, 35
  br i1 %22, label %23, label %27

23:                                               ; preds = %19
  %24 = load i8, ptr %.sroa.0.0.copyload.i, align 1
  %25 = load i8, ptr %1, align 1
  %26 = icmp eq i8 %24, %25
  br label %30

27:                                               ; preds = %19
  %28 = tail call i32 @strncmp(ptr noundef %1, ptr noundef nonnull %.sroa.0.0.copyload.i, i64 noundef %.sroa.2.0.copyload.i) #23
  %29 = icmp eq i32 %28, 0
  br label %30

30:                                               ; preds = %8, %27, %23, %15
  %.0 = phi i1 [ %18, %15 ], [ %26, %23 ], [ %29, %27 ], [ false, %8 ]
  ret i1 %.0
}